   1              		.syntax unified
   2              		.cpu cortex-m3
   3              		.fpu softvfp
   4              		.eabi_attribute 20, 1
   5              		.eabi_attribute 21, 1
   6              		.eabi_attribute 23, 3
   7              		.eabi_attribute 24, 1
   8              		.eabi_attribute 25, 1
   9              		.eabi_attribute 26, 1
  10              		.eabi_attribute 30, 2
  11              		.eabi_attribute 34, 1
  12              		.eabi_attribute 18, 4
  13              		.thumb
  14              		.file	"main.c"
  15              		.text
  16              	.Ltext0:
  17              		.cfi_sections	.debug_frame
  18              		.section	.text.startup.main,"ax",%progbits
  19              		.align	2
  20              		.global	main
  21              		.thumb
  22              		.thumb_func
  24              	main:
  25              	.LFB0:
  26              		.file 1 "../Main/main.c"
   1:../Main/main.c **** #include "main.h"
   2:../Main/main.c **** 
   3:../Main/main.c **** 
   4:../Main/main.c **** 
   5:../Main/main.c **** int main()
   6:../Main/main.c **** {
  27              		.loc 1 6 0
  28              		.cfi_startproc
  29              		@ args = 0, pretend = 0, frame = 24
  30              		@ frame_needed = 0, uses_anonymous_args = 0
  31 0000 10B5     		push	{r4, lr}
  32              	.LCFI0:
  33              		.cfi_def_cfa_offset 8
  34              		.cfi_offset 4, -8
  35              		.cfi_offset 14, -4
   7:../Main/main.c ****     
   8:../Main/main.c ****     RCC_ClocksTypeDef  rcc_clocks;
   9:../Main/main.c **** 
  10:../Main/main.c ****     NVIC_Configuration();
  36              		.loc 1 10 0
  37 0002 0D4B     		ldr	r3, .L6
   6:../Main/main.c ****     
  38              		.loc 1 6 0
  39 0004 86B0     		sub	sp, sp, #24
  40              	.LCFI1:
  41              		.cfi_def_cfa_offset 32
  42              		.loc 1 10 0
  43 0006 9847     		blx	r3
  44              	.LVL0:
  11:../Main/main.c ****     Hw_Init();
  45              		.loc 1 11 0
  46 0008 0C4B     		ldr	r3, .L6+4
  47 000a 9847     		blx	r3
  48              	.LVL1:
  12:../Main/main.c **** 
  13:../Main/main.c ****     /* Setup SysTick Timer for 1 msec interrupts  */
  14:../Main/main.c ****     if (SysTick_Config(rcc_clocks.SYSCLK_Frequency / 1000))
  49              		.loc 1 14 0
  50 000c 019B     		ldr	r3, [sp, #4]
  51 000e 0C49     		ldr	r1, .L6+8
  52 0010 0C4A     		ldr	r2, .L6+12
  53 0012 A1FB0330 		umull	r3, r0, r1, r3
  54 0016 8009     		lsrs	r0, r0, #6
  55 0018 9047     		blx	r2
  56              	.LVL2:
  57 001a 0446     		mov	r4, r0
  58 001c 30B1     		cbz	r0, .L2
  15:../Main/main.c ****     {   
  16:../Main/main.c ****         Rcc_GetClocksFreq(&rcc_clocks);
  59              		.loc 1 16 0
  60 001e 01A8     		add	r0, sp, #4
  61 0020 094B     		ldr	r3, .L6+16
  62 0022 9847     		blx	r3
  63              	.LVL3:
  17:../Main/main.c ****         printf("systick config error !!\n");
  64              		.loc 1 17 0
  65 0024 0948     		ldr	r0, .L6+20
  66 0026 0A4B     		ldr	r3, .L6+24
  67 0028 9847     		blx	r3
  68              	.LVL4:
  69              	.L3:
  18:../Main/main.c ****         /* Capture error */ 
  19:../Main/main.c ****         while (1);
  70              		.loc 1 19 0 discriminator 1
  71 002a FEE7     		b	.L3
  72              	.L2:
  20:../Main/main.c ****     }
  21:../Main/main.c ****     Seg_Main();
  73              		.loc 1 21 0
  74 002c 094B     		ldr	r3, .L6+28
  75 002e 9847     		blx	r3
  76              	.LVL5:
  22:../Main/main.c ****     
  23:../Main/main.c **** }...
  77              		.loc 1 23 0
  78 0030 2046     		mov	r0, r4
  79 0032 06B0     		add	sp, sp, #24
  80              	.LCFI2:
  81              		.cfi_def_cfa_offset 8
  82              		@ sp needed
  83 0034 10BD     		pop	{r4, pc}
  84              	.L7:
  85 0036 00BF     		.align	2
  86              	.L6:
  87 0038 00000000 		.word	NVIC_Configuration
  88 003c 00000000 		.word	Hw_Init
  89 0040 D34D6210 		.word	274877907
  90 0044 00000000 		.word	SysTick_Config
  91 0048 00000000 		.word	Rcc_GetClocksFreq
  92 004c 00000000 		.word	.LC0
  93 0050 00000000 		.word	printf
  94 0054 00000000 		.word	Seg_Main
  95              		.cfi_endproc
  96              	.LFE0:
  98              		.section	.rodata.str1.4,"aMS",%progbits,1
  99              		.align	2
 100              	.LC0:
 101 0000 73797374 		.ascii	"systick config error !!\012\000"
 101      69636B20 
 101      636F6E66 
 101      69672065 
 101      72726F72 
 102 0019 000000   		.text
 103              	.Letext0:
 104              		.file 2 "c:\\program files (x86)\\gnu tools arm embedded\\4.9 2015q1\\arm-none-eabi\\include\\mach
 105              		.file 3 "c:\\program files (x86)\\gnu tools arm embedded\\4.9 2015q1\\arm-none-eabi\\include\\stdi
 106              		.file 4 "../LIB_HW/Hw_Core/stm32_reg.h"