
Discarded input sections

 .text          0x00000000        0x0 Hw_StartUp.o
 .data          0x00000000        0x0 Hw_StartUp.o
 .bss           0x00000000        0x0 Hw_StartUp.o
 .data.ADCPrescTable
                0x00000000        0x4 Hw_StartUp.o
 .data.APBAHBPrescTable
                0x00000000       0x10 Hw_StartUp.o
 .text          0x00000000        0x0 Hw.o
 .data          0x00000000        0x0 Hw.o
 .bss           0x00000000        0x0 Hw.o
 .data.ADCPrescTable
                0x00000000        0x4 Hw.o
 .data.APBAHBPrescTable
                0x00000000       0x10 Hw.o
 .text          0x00000000        0x0 Hw_Gpio.o
 .data          0x00000000        0x0 Hw_Gpio.o
 .bss           0x00000000        0x0 Hw_Gpio.o
 .text.GPIO_ReadInputDateBit
                0x00000000        0xc Hw_Gpio.o
 .data.ADCPrescTable
                0x00000000        0x4 Hw_Gpio.o
 .data.APBAHBPrescTable
                0x00000000       0x10 Hw_Gpio.o
 .text          0x00000000        0x0 Hw_Usart.o
 .data          0x00000000        0x0 Hw_Usart.o
 .bss           0x00000000        0x0 Hw_Usart.o
 .text.USART_Init
                0x00000000       0x78 Hw_Usart.o
 .text.USART1_Init
                0x00000000       0x44 Hw_Usart.o
 .data.ADCPrescTable
                0x00000000        0x4 Hw_Usart.o
 .data.APBAHBPrescTable
                0x00000000       0x10 Hw_Usart.o
 .debug_info    0x00000000      0x335 Hw_Usart.o
 .debug_abbrev  0x00000000      0x124 Hw_Usart.o
 .debug_loc     0x00000000      0x304 Hw_Usart.o
 .debug_aranges
                0x00000000       0x28 Hw_Usart.o
 .debug_ranges  0x00000000       0x18 Hw_Usart.o
 .debug_line    0x00000000      0x1b7 Hw_Usart.o
 .debug_str     0x00000000      0x321 Hw_Usart.o
 .comment       0x00000000       0x71 Hw_Usart.o
 .debug_frame   0x00000000       0x5c Hw_Usart.o
 .ARM.attributes
                0x00000000       0x33 Hw_Usart.o
 .text          0x00000000        0x0 Hw_Rcc.o
 .data          0x00000000        0x0 Hw_Rcc.o
 .bss           0x00000000        0x0 Hw_Rcc.o
 .text.HSI_Init
                0x00000000       0x94 Hw_Rcc.o
 .text.HSE_Init
                0x00000000       0x94 Hw_Rcc.o
 .data.ADCPrescTable
                0x00000000        0x4 Hw_Rcc.o
 .data.APBAHBPrescTable
                0x00000000       0x10 Hw_Rcc.o
 .text          0x00000000        0x0 Ld_Printf.o
 .data          0x00000000        0x0 Ld_Printf.o
 .bss           0x00000000        0x0 Ld_Printf.o
 .text.get_byte
                0x00000000       0x18 Ld_Printf.o
 .text.SerialOutputString
                0x00000000       0x30 Ld_Printf.o
 .text.StrNCmp  0x00000000       0x40 Ld_Printf.o
 .text.StrCmp   0x00000000       0x44 Ld_Printf.o
 .data.ADCPrescTable
                0x00000000        0x4 Ld_Printf.o
 .data.APBAHBPrescTable
                0x00000000       0x10 Ld_Printf.o
 .text          0x00000000        0x0 Get_clock.o
 .data          0x00000000        0x0 Get_clock.o
 .bss           0x00000000        0x0 Get_clock.o
 .text          0x00000000        0x0 main.o
 .data          0x00000000        0x0 main.o
 .bss           0x00000000        0x0 main.o
 .data.ADCPrescTable
                0x00000000        0x4 main.o
 .data.APBAHBPrescTable
                0x00000000       0x10 main.o

Memory Configuration

Name             Origin             Length             Attributes
RAM              0x20000000         0x00005000         xrw
EXTSRAM          0x68000000         0x00000000         xrw
FLASH            0x08000000         0x0001f800         xr
EEMUL            0x0801f800         0x00000800         xrw
*default*        0x00000000         0xffffffff

Linker script and memory map

LOAD Hw_StartUp.o
LOAD Hw.o
LOAD Hw_Gpio.o
LOAD Hw_Usart.o
LOAD Hw_Rcc.o
LOAD Ld_Printf.o
LOAD Get_clock.o
LOAD main.o
LOAD c:/program files (x86)/gnu tools arm embedded/4.9 2015q1/bin/../lib/gcc/arm-none-eabi/4.9.3/../../../../arm-none-eabi/lib/armv7-m\libc.a
LOAD c:/program files (x86)/gnu tools arm embedded/4.9 2015q1/bin/../lib/gcc/arm-none-eabi/4.9.3/../../../../arm-none-eabi/lib/armv7-m\libm.a
LOAD c:/program files (x86)/gnu tools arm embedded/4.9 2015q1/bin/../lib/gcc/arm-none-eabi/4.9.3/../../../../arm-none-eabi/lib/armv7-m\libc.a
LOAD c:/program files (x86)/gnu tools arm embedded/4.9 2015q1/bin/../lib/gcc/arm-none-eabi/4.9.3/armv7-m\libgcc.a
                0x20005000                _estack = (ORIGIN (RAM) + 0x5000)
                0x0801f800                _seemul = ORIGIN (EEMUL)
                0x00000100                _Minimum_Stack_Size = 0x100
                0x00000001                ASSERT ((ORIGIN (FLASH) == ALIGN (ORIGIN (FLASH), 0x80)), Start of memory region flash not aligned for startup vector table)

.text           0x08000000      0xa18
                0x08000000                . = ALIGN (0x80)
                0x00000000                _isr_vectorsflash_offs = (. - 0x8000000)
 *(.isr_vectorsflash)
 .isr_vectorsflash
                0x08000000      0x108 Hw_StartUp.o
                0x08000000                g_pfnVectors
                0x08000108                . = ALIGN (0x4)
 *(.text)
 *(.text.*)
 .text.Default_Handler
                0x08000108        0x4 Hw_StartUp.o
                0x08000108                EXTI2_IRQHandler
                0x08000108                DebugMon_Handler
                0x08000108                TIM1_CC_IRQHandler
                0x08000108                SysTick_Handler
                0x08000108                PVD_IRQHandler
                0x08000108                PendSV_Handler
                0x08000108                EXTI3_IRQHandler
                0x08000108                EXTI0_IRQHandler
                0x08000108                I2C2_EV_IRQHandler
                0x08000108                UsageFault_Handler
                0x08000108                ADC1_2_IRQHandler
                0x08000108                SPI1_IRQHandler
                0x08000108                TAMPER_IRQHandler
                0x08000108                DMA1_Channel4_IRQHandler
                0x08000108                USART3_IRQHandler
                0x08000108                RTC_IRQHandler
                0x08000108                DMA1_Channel7_IRQHandler
                0x08000108                CAN1_RX1_IRQHandler
                0x08000108                TIM4_IRQHandler
                0x08000108                I2C1_EV_IRQHandler
                0x08000108                DMA1_Channel6_IRQHandler
                0x08000108                TIM3_IRQHandler
                0x08000108                RCC_IRQHandler
                0x08000108                TIM1_TRG_COM_IRQHandler
                0x08000108                DMA1_Channel1_IRQHandler
                0x08000108                Default_Handler
                0x08000108                EXTI15_10_IRQHandler
                0x08000108                EXTI9_5_IRQHandler
                0x08000108                SPI2_IRQHandler
                0x08000108                MemManage_Handler
                0x08000108                SVC_Handler
                0x08000108                DMA1_Channel5_IRQHandler
                0x08000108                EXTI4_IRQHandler
                0x08000108                USB_LP_CAN1_RX0_IRQHandler
                0x08000108                USB_HP_CAN1_TX_IRQHandler
                0x08000108                DMA1_Channel3_IRQHandler
                0x08000108                TIM1_UP_IRQHandler
                0x08000108                WWDG_IRQHandler
                0x08000108                TIM2_IRQHandler
                0x08000108                TIM1_BRK_IRQHandler
                0x08000108                EXTI1_IRQHandler
                0x08000108                RTCAlarm_IRQHandler
                0x08000108                USART2_IRQHandler
                0x08000108                I2C2_ER_IRQHandler
                0x08000108                DMA1_Channel2_IRQHandler
                0x08000108                CAN1_SCE_IRQHandler
                0x08000108                FLASH_IRQHandler
                0x08000108                BusFault_Handler
                0x08000108                USART1_IRQHandler
                0x08000108                SPI3_IRQHandler
                0x08000108                I2C1_ER_IRQHandler
                0x08000108                MMI_Handler
                0x08000108                USBWakeUp_IRQHandler
 .text.Reset_Handler
                0x0800010c      0x15c Hw_StartUp.o
                0x0800010c                Reset_Handler
 .text.Hw_Init  0x08000268       0x2c Hw.o
                0x08000268                Hw_Init
 .text.GPIO_Init
                0x08000294       0xbc Hw_Gpio.o
                0x08000294                GPIO_Init
 .text.GPIO_Configuration
                0x08000350       0x44 Hw_Gpio.o
                0x08000350                GPIO_Configuration
 .text.print_byte
                0x08000394       0x28 Ld_Printf.o
                0x08000394                print_byte
 .text.DecToLong
                0x080003bc       0x4c Ld_Printf.o
                0x080003bc                DecToLong
 .text.printf   0x08000408      0x458 Ld_Printf.o
                0x08000408                printf
 .text.Rcc_GetClocksFreq
                0x08000860       0xac Get_clock.o
                0x08000860                Rcc_GetClocksFreq
 .text.System_Information
                0x0800090c       0x5c Get_clock.o
                0x0800090c                System_Information
 .text.startup.main
                0x08000968       0x18 main.o
                0x08000968                main
 *(.stub .gnu.linkonce.t.*)
 *(.rodata .rodata.* .gnu.linkonce.r.*)
 .rodata.str1.4
                0x08000980       0x98 Get_clock.o
 *(.glue_7 .glue_7t)
 .glue_7        0x00000000        0x0 linker stubs
 .glue_7t       0x00000000        0x0 linker stubs
                0x08000a18                . = ALIGN (0x4)
                0x08000a18                _etext = .
                0x08000a18                _sidata = _etext

.vfp11_veneer   0x08000a18        0x0
 .vfp11_veneer  0x00000000        0x0 linker stubs

.v4_bx          0x08000a18        0x0
 .v4_bx         0x00000000        0x0 linker stubs

.iplt           0x08000a18        0x0
 .iplt          0x00000000        0x0 Hw_StartUp.o

.rel.dyn        0x08000a18        0x0
 .rel.iplt      0x00000000        0x0 Hw_StartUp.o

.data           0x20000000       0x14 load address 0x08000a18
                0x20000000                . = .
                0x20000000                . = ALIGN (0x4)
                0x20000000                _sdata = .
                0x20000000                . = ALIGN (0x80)
                0x00000000                _isr_vectorsram_offs = (. - 0x20000000)
 *(.isr_vectorsram)
                0x20000000                . = ALIGN (0x4)
 *(.ramfunc*)
                0x20000000                . = ALIGN (0x4)
 *(.data .data.* .gnu.linkonce.d.*)
 .data.ADCPrescTable
                0x20000000        0x4 Get_clock.o
 .data.APBAHBPrescTable
                0x20000004       0x10 Get_clock.o
                0x20000014                . = ALIGN (0x4)
                0x20000014                _edata = .

.igot.plt       0x20000014        0x0 load address 0x08000a2c
 .igot.plt      0x00000000        0x0 Hw_StartUp.o

.bss            0x20000014        0x4 load address 0x08000a2c
                0x20000014                . = ALIGN (0x4)
                0x20000014                _sbss = .
 *(.bss .bss.*)
 .bss.StartUpCouter
                0x20000014        0x4 Hw_Rcc.o
                0x20000014                StartUpCouter
 *(COMMON)
                0x20000018                . = ALIGN (0x4)
                0x20000018                _ebss = .
                0x20000018                PROVIDE (end, _ebss)
                0x20000018                PROVIDE (_end, _ebss)

._usrstack      0x20000018      0x100 load address 0x08000a30
                0x20000018                . = ALIGN (0x4)
                0x20000018                _susrstack = .
                0x20000118                . = (. + _Minimum_Stack_Size)
 *fill*         0x20000018      0x100 
                0x20000118                . = ALIGN (0x4)
                0x20000118                _eusrstack = .
                0x00000400                __Stack_Size = 0x400
                0x00000400                PROVIDE (_Stack_Size, __Stack_Size)
                0x20004c00                __Stack_Init = (_estack - __Stack_Size)
                0x20004c00                PROVIDE (_Stack_Init, __Stack_Init)
OUTPUT(main.elf elf32-littlearm)

.debug_info     0x00000000     0x15a0
 .debug_info    0x00000000      0x1c5 Hw_StartUp.o
 .debug_info    0x000001c5      0x1bd Hw.o
 .debug_info    0x00000382      0x385 Hw_Gpio.o
 .debug_info    0x00000707      0x2b1 Hw_Rcc.o
 .debug_info    0x000009b8      0x794 Ld_Printf.o
 .debug_info    0x0000114c      0x349 Get_clock.o
 .debug_info    0x00001495      0x10b main.o

.debug_abbrev   0x00000000      0x850
 .debug_abbrev  0x00000000       0xf1 Hw_StartUp.o
 .debug_abbrev  0x000000f1       0xb6 Hw.o
 .debug_abbrev  0x000001a7      0x14a Hw_Gpio.o
 .debug_abbrev  0x000002f1       0xf6 Hw_Rcc.o
 .debug_abbrev  0x000003e7      0x27c Ld_Printf.o
 .debug_abbrev  0x00000663      0x162 Get_clock.o
 .debug_abbrev  0x000007c5       0x8b main.o

.debug_loc      0x00000000     0x190a
 .debug_loc     0x00000000       0xc1 Hw_StartUp.o
 .debug_loc     0x000000c1       0x20 Hw.o
 .debug_loc     0x000000e1      0x314 Hw_Gpio.o
 .debug_loc     0x000003f5       0x88 Hw_Rcc.o
 .debug_loc     0x0000047d     0x1263 Ld_Printf.o
 .debug_loc     0x000016e0      0x20a Get_clock.o
 .debug_loc     0x000018ea       0x20 main.o

.debug_aranges  0x00000000      0x138
 .debug_aranges
                0x00000000       0x28 Hw_StartUp.o
 .debug_aranges
                0x00000028       0x20 Hw.o
 .debug_aranges
                0x00000048       0x30 Hw_Gpio.o
 .debug_aranges
                0x00000078       0x28 Hw_Rcc.o
 .debug_aranges
                0x000000a0       0x50 Ld_Printf.o
 .debug_aranges
                0x000000f0       0x28 Get_clock.o
 .debug_aranges
                0x00000118       0x20 main.o

.debug_ranges   0x00000000      0x1c0
 .debug_ranges  0x00000000       0x18 Hw_StartUp.o
 .debug_ranges  0x00000018       0x10 Hw.o
 .debug_ranges  0x00000028       0x20 Hw_Gpio.o
 .debug_ranges  0x00000048       0x18 Hw_Rcc.o
 .debug_ranges  0x00000060      0x138 Ld_Printf.o
 .debug_ranges  0x00000198       0x18 Get_clock.o
 .debug_ranges  0x000001b0       0x10 main.o

.debug_line     0x00000000      0xcc0
 .debug_line    0x00000000      0x1d2 Hw_StartUp.o
 .debug_line    0x000001d2      0x13d Hw.o
 .debug_line    0x0000030f      0x1c6 Hw_Gpio.o
 .debug_line    0x000004d5      0x1b8 Hw_Rcc.o
 .debug_line    0x0000068d      0x37c Ld_Printf.o
 .debug_line    0x00000a09      0x191 Get_clock.o
 .debug_line    0x00000b9a      0x126 main.o

.debug_str      0x00000000      0x697
 .debug_str     0x00000000      0x209 Hw_StartUp.o
                                0x245 (size before relaxing)
 .debug_str     0x00000209       0x69 Hw.o
                                0x21f (size before relaxing)
 .debug_str     0x00000272      0x1e9 Hw_Gpio.o
                                0x3b3 (size before relaxing)
 .debug_str     0x0000045b       0x69 Hw_Rcc.o
                                0x28c (size before relaxing)
 .debug_str     0x000004c4       0xec Ld_Printf.o
                                0x29e (size before relaxing)
 .debug_str     0x000005b0       0xd3 Get_clock.o
                                0x2e7 (size before relaxing)
 .debug_str     0x00000683       0x14 main.o
                                0x1c1 (size before relaxing)

.comment        0x00000000       0x70
 .comment       0x00000000       0x70 Hw_StartUp.o
                                 0x71 (size before relaxing)
 .comment       0x00000000       0x71 Hw.o
 .comment       0x00000000       0x71 Hw_Gpio.o
 .comment       0x00000000       0x71 Hw_Rcc.o
 .comment       0x00000000       0x71 Ld_Printf.o
 .comment       0x00000000       0x71 Get_clock.o
 .comment       0x00000000       0x71 main.o

.ARM.attributes
                0x00000000       0x33
 .ARM.attributes
                0x00000000       0x33 Hw_StartUp.o
 .ARM.attributes
                0x00000033       0x33 Hw.o
 .ARM.attributes
                0x00000066       0x33 Hw_Gpio.o
 .ARM.attributes
                0x00000099       0x33 Hw_Rcc.o
 .ARM.attributes
                0x000000cc       0x33 Ld_Printf.o
 .ARM.attributes
                0x000000ff       0x33 Get_clock.o
 .ARM.attributes
                0x00000132       0x33 main.o

.debug_frame    0x00000000      0x328
 .debug_frame   0x00000000       0x64 Hw_StartUp.o
 .debug_frame   0x00000064       0x2c Hw.o
 .debug_frame   0x00000090       0x70 Hw_Gpio.o
 .debug_frame   0x00000100       0x58 Hw_Rcc.o
 .debug_frame   0x00000158      0x150 Ld_Printf.o
 .debug_frame   0x000002a8       0x54 Get_clock.o
 .debug_frame   0x000002fc       0x2c main.o

Cross Reference Table

Symbol                                            File
ADC1_2_IRQHandler                                 Hw_StartUp.o
BusFault_Handler                                  Hw_StartUp.o
CAN1_RX1_IRQHandler                               Hw_StartUp.o
CAN1_SCE_IRQHandler                               Hw_StartUp.o
DMA1_Channel1_IRQHandler                          Hw_StartUp.o
DMA1_Channel2_IRQHandler                          Hw_StartUp.o
DMA1_Channel3_IRQHandler                          Hw_StartUp.o
DMA1_Channel4_IRQHandler                          Hw_StartUp.o
DMA1_Channel5_IRQHandler                          Hw_StartUp.o
DMA1_Channel6_IRQHandler                          Hw_StartUp.o
DMA1_Channel7_IRQHandler                          Hw_StartUp.o
DebugMon_Handler                                  Hw_StartUp.o
DecToLong                                         Ld_Printf.o
Default_Handler                                   Hw_StartUp.o
EXTI0_IRQHandler                                  Hw_StartUp.o
EXTI15_10_IRQHandler                              Hw_StartUp.o
EXTI1_IRQHandler                                  Hw_StartUp.o
EXTI2_IRQHandler                                  Hw_StartUp.o
EXTI3_IRQHandler                                  Hw_StartUp.o
EXTI4_IRQHandler                                  Hw_StartUp.o
EXTI9_5_IRQHandler                                Hw_StartUp.o
FLASH_IRQHandler                                  Hw_StartUp.o
GPIO_Configuration                                Hw_Gpio.o
                                                  Hw.o
GPIO_Init                                         Hw_Gpio.o
GPIO_ReadInputDateBit                             Hw_Gpio.o
HSE_Init                                          Hw_Rcc.o
HSI_Init                                          Hw_Rcc.o
HardFault_Handler                                 Hw_StartUp.o
Hw_Init                                           Hw.o
                                                  main.o
I2C1_ER_IRQHandler                                Hw_StartUp.o
I2C1_EV_IRQHandler                                Hw_StartUp.o
I2C2_ER_IRQHandler                                Hw_StartUp.o
I2C2_EV_IRQHandler                                Hw_StartUp.o
MMI_Handler                                       Hw_StartUp.o
MemManage_Handler                                 Hw_StartUp.o
NMI_Handler                                       Hw_StartUp.o
PVD_IRQHandler                                    Hw_StartUp.o
PendSV_Handler                                    Hw_StartUp.o
RCC_IRQHandler                                    Hw_StartUp.o
RTCAlarm_IRQHandler                               Hw_StartUp.o
RTC_IRQHandler                                    Hw_StartUp.o
Rcc_GetClocksFreq                                 Get_clock.o
Reset_Handler                                     Hw_StartUp.o
SPI1_IRQHandler                                   Hw_StartUp.o
SPI2_IRQHandler                                   Hw_StartUp.o
SPI3_IRQHandler                                   Hw_StartUp.o
SVC_Handler                                       Hw_StartUp.o
SerialOutputString                                Ld_Printf.o
StartUpCouter                                     Hw_Rcc.o
                                                  Get_clock.o
StrCmp                                            Ld_Printf.o
StrNCmp                                           Ld_Printf.o
SysTick_Handler                                   Hw_StartUp.o
System_Information                                Get_clock.o
                                                  main.o
TAMPER_IRQHandler                                 Hw_StartUp.o
TIM1_BRK_IRQHandler                               Hw_StartUp.o
TIM1_CC_IRQHandler                                Hw_StartUp.o
TIM1_TRG_COM_IRQHandler                           Hw_StartUp.o
TIM1_UP_IRQHandler                                Hw_StartUp.o
TIM2_IRQHandler                                   Hw_StartUp.o
TIM3_IRQHandler                                   Hw_StartUp.o
TIM4_IRQHandler                                   Hw_StartUp.o
USART1_IRQHandler                                 Hw_StartUp.o
USART1_Init                                       Hw_Usart.o
USART2_IRQHandler                                 Hw_StartUp.o
USART3_IRQHandler                                 Hw_StartUp.o
USART_Init                                        Hw_Usart.o
USBWakeUp_IRQHandler                              Hw_StartUp.o
USB_HP_CAN1_TX_IRQHandler                         Hw_StartUp.o
USB_LP_CAN1_RX0_IRQHandler                        Hw_StartUp.o
UsageFault_Handler                                Hw_StartUp.o
WWDG_IRQHandler                                   Hw_StartUp.o
_ebss                                             Hw_StartUp.o
_edata                                            Hw_StartUp.o
_estack                                           Hw_StartUp.o
_sbss                                             Hw_StartUp.o
_sdata                                            Hw_StartUp.o
_sidata                                           Hw_StartUp.o
g_pfnVectors                                      Hw_StartUp.o
get_byte                                          Ld_Printf.o
main                                              main.o
                                                  Hw_StartUp.o
print_byte                                        Ld_Printf.o
printf                                            Ld_Printf.o
                                                  Get_clock.o
